; ModuleID = 'source-C-CXX/29/427.cpp'
source_filename = "source-C-CXX/29/427.cpp"
target datalayout = "e-m:e-p270:32:32-p271:32:32-p272:64:64-i64:64-f80:128-n8:16:32:64-S128"
target triple = "x86_64-pc-linux-gnu"

%"class.std::ios_base::Init" = type { i8 }
%"class.std::basic_istream" = type { i32 (...)**, i64, %"class.std::basic_ios" }
%"class.std::basic_ios" = type { %"class.std::ios_base", %"class.std::basic_ostream"*, i8, i8, %"class.std::basic_streambuf"*, %"class.std::ctype"*, %"class.std::num_put"*, %"class.std::num_get"* }
%"class.std::ios_base" = type { i32 (...)**, i64, i64, i32, i32, i32, %"struct.std::ios_base::_Callback_list"*, %"struct.std::ios_base::_Words", [8 x %"struct.std::ios_base::_Words"], i32, %"struct.std::ios_base::_Words"*, %"class.std::locale" }
%"struct.std::ios_base::_Callback_list" = type { %"struct.std::ios_base::_Callback_list"*, void (i32, %"class.std::ios_base"*, i32)*, i32, i32 }
%"struct.std::ios_base::_Words" = type { i8*, i64 }
%"class.std::locale" = type { %"class.std::locale::_Impl"* }
%"class.std::locale::_Impl" = type { i32, %"class.std::locale::facet"**, i64, %"class.std::locale::facet"**, i8** }
%"class.std::locale::facet" = type <{ i32 (...)**, i32, [4 x i8] }>
%"class.std::basic_ostream" = type { i32 (...)**, %"class.std::basic_ios" }
%"class.std::basic_streambuf" = type { i32 (...)**, i8*, i8*, i8*, i8*, i8*, i8*, %"class.std::locale" }
%"class.std::ctype" = type <{ %"class.std::locale::facet.base", [4 x i8], %struct.__locale_struct*, i8, [7 x i8], i32*, i32*, i16*, i8, [256 x i8], [256 x i8], i8, [6 x i8] }>
%"class.std::locale::facet.base" = type <{ i32 (...)**, i32 }>
%struct.__locale_struct = type { [13 x %struct.__locale_data*], i16*, i32*, i32*, [13 x i8*] }
%struct.__locale_data = type opaque
%"class.std::num_put" = type { %"class.std::locale::facet.base", [4 x i8] }
%"class.std::num_get" = type { %"class.std::locale::facet.base", [4 x i8] }

@_ZStL8__ioinit = internal global %"class.std::ios_base::Init" zeroinitializer, align 1
@__dso_handle = external hidden global i8
@_ZSt3cin = external global %"class.std::basic_istream", align 8
@_ZSt4cout = external global %"class.std::basic_ostream", align 8
@llvm.global_ctors = appending global [1 x { i32, void ()*, i8* }] [{ i32, void ()*, i8* } { i32 65535, void ()* @_GLOBAL__sub_I_427.cpp, i8* null }]

declare void @_ZNSt8ios_base4InitC1Ev(%"class.std::ios_base::Init"* nonnull align 1 dereferenceable(1)) unnamed_addr #0

; Function Attrs: nounwind
declare void @_ZNSt8ios_base4InitD1Ev(%"class.std::ios_base::Init"* nonnull align 1 dereferenceable(1)) unnamed_addr #1

; Function Attrs: nofree nounwind
declare i32 @__cxa_atexit(void (i8*)*, i8*, i8*) local_unnamed_addr #2

; Function Attrs: mustprogress norecurse sspstrong uwtable
define dso_local i32 @main() local_unnamed_addr #3 {
  %1 = alloca [10000 x i32], align 16
  %2 = alloca [10000 x i32], align 16
  %3 = alloca i32, align 4
  %4 = bitcast [10000 x i32]* %1 to i8*
  call void @llvm.lifetime.start.p0i8(i64 40000, i8* nonnull %4) #7
  %5 = bitcast [10000 x i32]* %2 to i8*
  call void @llvm.lifetime.start.p0i8(i64 40000, i8* nonnull %5) #7
  %6 = bitcast i32* %3 to i8*
  call void @llvm.lifetime.start.p0i8(i64 4, i8* nonnull %6) #7
  %7 = call nonnull align 8 dereferenceable(16) %"class.std::basic_istream"* @_ZNSirsERi(%"class.std::basic_istream"* nonnull align 8 dereferenceable(16) @_ZSt3cin, i32* nonnull align 4 dereferenceable(4) %3)
  %8 = load i32, i32* %3, align 4, !tbaa !5
  %9 = icmp slt i32 %8, 1
  br i1 %9, label %116, label %10

10:                                               ; preds = %0
  %11 = add nuw i32 %8, 1
  %12 = zext i32 %11 to i64
  %13 = add nsw i64 %12, -1
  %14 = icmp ult i64 %13, 8
  br i1 %14, label %78, label %15

15:                                               ; preds = %10
  %16 = and i64 %13, -8
  %17 = or i64 %16, 1
  %18 = add nsw i64 %16, -8
  %19 = lshr exact i64 %18, 3
  %20 = add nuw nsw i64 %19, 1
  %21 = and i64 %20, 1
  %22 = icmp eq i64 %18, 0
  br i1 %22, label %60, label %23

23:                                               ; preds = %15
  %24 = and i64 %20, 4611686018427387902
  br label %25

25:                                               ; preds = %25, %23
  %26 = phi i64 [ 0, %23 ], [ %54, %25 ]
  %27 = phi <4 x i32> [ <i32 1, i32 2, i32 3, i32 4>, %23 ], [ %55, %25 ]
  %28 = phi i64 [ %24, %23 ], [ %56, %25 ]
  %29 = or i64 %26, 1
  %30 = getelementptr inbounds [10000 x i32], [10000 x i32]* %1, i64 0, i64 %29
  %31 = add <4 x i32> %27, <i32 4, i32 4, i32 4, i32 4>
  %32 = bitcast i32* %30 to <4 x i32>*
  store <4 x i32> %27, <4 x i32>* %32, align 4, !tbaa !5
  %33 = getelementptr inbounds i32, i32* %30, i64 4
  %34 = bitcast i32* %33 to <4 x i32>*
  store <4 x i32> %31, <4 x i32>* %34, align 4, !tbaa !5
  %35 = mul nsw <4 x i32> %27, %27
  %36 = mul nsw <4 x i32> %31, %31
  %37 = getelementptr inbounds [10000 x i32], [10000 x i32]* %2, i64 0, i64 %29
  %38 = bitcast i32* %37 to <4 x i32>*
  store <4 x i32> %35, <4 x i32>* %38, align 4, !tbaa !5
  %39 = getelementptr inbounds i32, i32* %37, i64 4
  %40 = bitcast i32* %39 to <4 x i32>*
  store <4 x i32> %36, <4 x i32>* %40, align 4, !tbaa !5
  %41 = add <4 x i32> %27, <i32 8, i32 8, i32 8, i32 8>
  %42 = or i64 %26, 9
  %43 = getelementptr inbounds [10000 x i32], [10000 x i32]* %1, i64 0, i64 %42
  %44 = add <4 x i32> %27, <i32 12, i32 12, i32 12, i32 12>
  %45 = bitcast i32* %43 to <4 x i32>*
  store <4 x i32> %41, <4 x i32>* %45, align 4, !tbaa !5
  %46 = getelementptr inbounds i32, i32* %43, i64 4
  %47 = bitcast i32* %46 to <4 x i32>*
  store <4 x i32> %44, <4 x i32>* %47, align 4, !tbaa !5
  %48 = mul nsw <4 x i32> %41, %41
  %49 = mul nsw <4 x i32> %44, %44
  %50 = getelementptr inbounds [10000 x i32], [10000 x i32]* %2, i64 0, i64 %42
  %51 = bitcast i32* %50 to <4 x i32>*
  store <4 x i32> %48, <4 x i32>* %51, align 4, !tbaa !5
  %52 = getelementptr inbounds i32, i32* %50, i64 4
  %53 = bitcast i32* %52 to <4 x i32>*
  store <4 x i32> %49, <4 x i32>* %53, align 4, !tbaa !5
  %54 = add nuw i64 %26, 16
  %55 = add <4 x i32> %27, <i32 16, i32 16, i32 16, i32 16>
  %56 = add i64 %28, -2
  %57 = icmp eq i64 %56, 0
  br i1 %57, label %58, label %25, !llvm.loop !9

58:                                               ; preds = %25
  %59 = or i64 %54, 1
  br label %60

60:                                               ; preds = %58, %15
  %61 = phi i64 [ 1, %15 ], [ %59, %58 ]
  %62 = phi <4 x i32> [ <i32 1, i32 2, i32 3, i32 4>, %15 ], [ %55, %58 ]
  %63 = icmp eq i64 %21, 0
  br i1 %63, label %76, label %64

64:                                               ; preds = %60
  %65 = getelementptr inbounds [10000 x i32], [10000 x i32]* %1, i64 0, i64 %61
  %66 = add <4 x i32> %62, <i32 4, i32 4, i32 4, i32 4>
  %67 = bitcast i32* %65 to <4 x i32>*
  store <4 x i32> %62, <4 x i32>* %67, align 4, !tbaa !5
  %68 = getelementptr inbounds i32, i32* %65, i64 4
  %69 = bitcast i32* %68 to <4 x i32>*
  store <4 x i32> %66, <4 x i32>* %69, align 4, !tbaa !5
  %70 = mul nsw <4 x i32> %62, %62
  %71 = mul nsw <4 x i32> %66, %66
  %72 = getelementptr inbounds [10000 x i32], [10000 x i32]* %2, i64 0, i64 %61
  %73 = bitcast i32* %72 to <4 x i32>*
  store <4 x i32> %70, <4 x i32>* %73, align 4, !tbaa !5
  %74 = getelementptr inbounds i32, i32* %72, i64 4
  %75 = bitcast i32* %74 to <4 x i32>*
  store <4 x i32> %71, <4 x i32>* %75, align 4, !tbaa !5
  br label %76

76:                                               ; preds = %60, %64
  %77 = icmp eq i64 %13, %16
  br i1 %77, label %80, label %78

78:                                               ; preds = %10, %76
  %79 = phi i64 [ 1, %10 ], [ %17, %76 ]
  br label %84

80:                                               ; preds = %84, %76
  br i1 %9, label %116, label %81

81:                                               ; preds = %80
  %82 = add nuw i32 %8, 1
  %83 = zext i32 %82 to i64
  br label %92

84:                                               ; preds = %78, %84
  %85 = phi i64 [ %90, %84 ], [ %79, %78 ]
  %86 = getelementptr inbounds [10000 x i32], [10000 x i32]* %1, i64 0, i64 %85
  %87 = trunc i64 %85 to i32
  store i32 %87, i32* %86, align 4, !tbaa !5
  %88 = mul nsw i32 %87, %87
  %89 = getelementptr inbounds [10000 x i32], [10000 x i32]* %2, i64 0, i64 %85
  store i32 %88, i32* %89, align 4, !tbaa !5
  %90 = add nuw nsw i64 %85, 1
  %91 = icmp eq i64 %90, %12
  br i1 %91, label %80, label %84, !llvm.loop !12

92:                                               ; preds = %81, %112
  %93 = phi i64 [ 1, %81 ], [ %114, %112 ]
  %94 = phi i32 [ 0, %81 ], [ %113, %112 ]
  %95 = getelementptr inbounds [10000 x i32], [10000 x i32]* %1, i64 0, i64 %93
  %96 = load i32, i32* %95, align 4, !tbaa !5
  %97 = srem i32 %96, 7
  %98 = icmp eq i32 %97, 0
  %99 = insertelement <8 x i32> poison, i32 %96, i32 0
  %100 = shufflevector <8 x i32> %99, <8 x i32> poison, <8 x i32> zeroinitializer
  %101 = icmp eq <8 x i32> %100, <i32 97, i32 87, i32 67, i32 57, i32 47, i32 37, i32 27, i32 17>
  %102 = add i32 %96, -70
  %103 = icmp ult i32 %102, 10
  %104 = bitcast <8 x i1> %101 to i8
  %105 = icmp ne i8 %104, 0
  %106 = or i1 %105, %98
  %107 = or i1 %106, %103
  br i1 %107, label %112, label %108

108:                                              ; preds = %92
  %109 = getelementptr inbounds [10000 x i32], [10000 x i32]* %2, i64 0, i64 %93
  %110 = load i32, i32* %109, align 4, !tbaa !5
  %111 = add nsw i32 %110, %94
  br label %112

112:                                              ; preds = %92, %108
  %113 = phi i32 [ %94, %92 ], [ %111, %108 ]
  %114 = add nuw nsw i64 %93, 1
  %115 = icmp eq i64 %114, %83
  br i1 %115, label %116, label %92, !llvm.loop !14

116:                                              ; preds = %112, %0, %80
  %117 = phi i32 [ 0, %80 ], [ 0, %0 ], [ %113, %112 ]
  %118 = call nonnull align 8 dereferenceable(8) %"class.std::basic_ostream"* @_ZNSolsEi(%"class.std::basic_ostream"* nonnull align 8 dereferenceable(8) @_ZSt4cout, i32 %117)
  %119 = bitcast %"class.std::basic_ostream"* %118 to i8**
  %120 = load i8*, i8** %119, align 8, !tbaa !15
  %121 = getelementptr i8, i8* %120, i64 -24
  %122 = bitcast i8* %121 to i64*
  %123 = load i64, i64* %122, align 8
  %124 = bitcast %"class.std::basic_ostream"* %118 to i8*
  %125 = add nsw i64 %123, 240
  %126 = getelementptr inbounds i8, i8* %124, i64 %125
  %127 = bitcast i8* %126 to %"class.std::ctype"**
  %128 = load %"class.std::ctype"*, %"class.std::ctype"** %127, align 8, !tbaa !17
  %129 = icmp eq %"class.std::ctype"* %128, null
  br i1 %129, label %130, label %131

130:                                              ; preds = %116
  call void @_ZSt16__throw_bad_castv() #8
  unreachable

131:                                              ; preds = %116
  %132 = getelementptr inbounds %"class.std::ctype", %"class.std::ctype"* %128, i64 0, i32 8
  %133 = load i8, i8* %132, align 8, !tbaa !21
  %134 = icmp eq i8 %133, 0
  br i1 %134, label %138, label %135

135:                                              ; preds = %131
  %136 = getelementptr inbounds %"class.std::ctype", %"class.std::ctype"* %128, i64 0, i32 9, i64 10
  %137 = load i8, i8* %136, align 1, !tbaa !23
  br label %144

138:                                              ; preds = %131
  call void @_ZNKSt5ctypeIcE13_M_widen_initEv(%"class.std::ctype"* nonnull align 8 dereferenceable(570) %128)
  %139 = bitcast %"class.std::ctype"* %128 to i8 (%"class.std::ctype"*, i8)***
  %140 = load i8 (%"class.std::ctype"*, i8)**, i8 (%"class.std::ctype"*, i8)*** %139, align 8, !tbaa !15
  %141 = getelementptr inbounds i8 (%"class.std::ctype"*, i8)*, i8 (%"class.std::ctype"*, i8)** %140, i64 6
  %142 = load i8 (%"class.std::ctype"*, i8)*, i8 (%"class.std::ctype"*, i8)** %141, align 8
  %143 = call signext i8 %142(%"class.std::ctype"* nonnull align 8 dereferenceable(570) %128, i8 signext 10)
  br label %144

144:                                              ; preds = %135, %138
  %145 = phi i8 [ %137, %135 ], [ %143, %138 ]
  %146 = call nonnull align 8 dereferenceable(8) %"class.std::basic_ostream"* @_ZNSo3putEc(%"class.std::basic_ostream"* nonnull align 8 dereferenceable(8) %118, i8 signext %145)
  %147 = call nonnull align 8 dereferenceable(8) %"class.std::basic_ostream"* @_ZNSo5flushEv(%"class.std::basic_ostream"* nonnull align 8 dereferenceable(8) %146)
  call void @llvm.lifetime.end.p0i8(i64 4, i8* nonnull %6) #7
  call void @llvm.lifetime.end.p0i8(i64 40000, i8* nonnull %5) #7
  call void @llvm.lifetime.end.p0i8(i64 40000, i8* nonnull %4) #7
  ret i32 0
}

; Function Attrs: argmemonly mustprogress nofree nosync nounwind willreturn
declare void @llvm.lifetime.start.p0i8(i64 immarg, i8* nocapture) #4

declare nonnull align 8 dereferenceable(16) %"class.std::basic_istream"* @_ZNSirsERi(%"class.std::basic_istream"* nonnull align 8 dereferenceable(16), i32* nonnull align 4 dereferenceable(4)) local_unnamed_addr #0

declare nonnull align 8 dereferenceable(8) %"class.std::basic_ostream"* @_ZNSolsEi(%"class.std::basic_ostream"* nonnull align 8 dereferenceable(8), i32) local_unnamed_addr #0

; Function Attrs: argmemonly mustprogress nofree nosync nounwind willreturn
declare void @llvm.lifetime.end.p0i8(i64 immarg, i8* nocapture) #4

declare nonnull align 8 dereferenceable(8) %"class.std::basic_ostream"* @_ZNSo3putEc(%"class.std::basic_ostream"* nonnull align 8 dereferenceable(8), i8 signext) local_unnamed_addr #0

declare nonnull align 8 dereferenceable(8) %"class.std::basic_ostream"* @_ZNSo5flushEv(%"class.std::basic_ostream"* nonnull align 8 dereferenceable(8)) local_unnamed_addr #0

; Function Attrs: noreturn
declare void @_ZSt16__throw_bad_castv() local_unnamed_addr #5

declare void @_ZNKSt5ctypeIcE13_M_widen_initEv(%"class.std::ctype"* nonnull align 8 dereferenceable(570)) local_unnamed_addr #0

; Function Attrs: sspstrong uwtable
define internal void @_GLOBAL__sub_I_427.cpp() #6 section ".text.startup" {
  tail call void @_ZNSt8ios_base4InitC1Ev(%"class.std::ios_base::Init"* nonnull align 1 dereferenceable(1) @_ZStL8__ioinit)
  %1 = tail call i32 @__cxa_atexit(void (i8*)* bitcast (void (%"class.std::ios_base::Init"*)* @_ZNSt8ios_base4InitD1Ev to void (i8*)*), i8* getelementptr inbounds (%"class.std::ios_base::Init", %"class.std::ios_base::Init"* @_ZStL8__ioinit, i64 0, i32 0), i8* nonnull @__dso_handle) #7
  ret void
}


!llvm.module.flags = !{!0, !1, !2, !3}
!llvm.ident = !{!4}

!0 = !{i32 1, !"wchar_size", i32 4}
!1 = !{i32 7, !"PIC Level", i32 2}
!2 = !{i32 7, !"PIE Level", i32 2}
!3 = !{i32 7, !"uwtable", i32 1}
!4 = !{!"clang version 13.0.0"}
!5 = !{!6, !6, i64 0}
!6 = !{!"int", !7, i64 0}
!7 = !{!"omnipotent char", !8, i64 0}
!8 = !{!"Simple C++ TBAA"}
!9 = distinct !{!9, !10, !11}
!10 = !{!"llvm.loop.mustprogress"}
!11 = !{!"llvm.loop.isvectorized", i32 1}
!12 = distinct !{!12, !10, !13, !11}
!13 = !{!"llvm.loop.unroll.runtime.disable"}
!14 = distinct !{!14, !10}
!15 = !{!16, !16, i64 0}
!16 = !{!"vtable pointer", !8, i64 0}
!17 = !{!18, !19, i64 240}
!18 = !{!"_ZTSSt9basic_iosIcSt11char_traitsIcEE", !19, i64 216, !7, i64 224, !20, i64 225, !19, i64 232, !19, i64 240, !19, i64 248, !19, i64 256}
!19 = !{!"any pointer", !7, i64 0}
!20 = !{!"bool", !7, i64 0}
!21 = !{!22, !7, i64 56}
!22 = !{!"_ZTSSt5ctypeIcE", !19, i64 16, !20, i64 24, !19, i64 32, !19, i64 40, !19, i64 48, !7, i64 56, !7, i64 57, !7, i64 313, !7, i64 569}
!23 = !{!7, !7, i64 0}
